target datalayout = "e-m:e-p270:32:32-p271:32:32-p272:64:64-i64:64-i128:128-f80:128-n8:16:32:64-S128"
target triple = "x86_64-pc-linux-gnu"

%struct.jit_State = type { %struct.GCtrace, ptr, ptr, ptr, ptr, ptr, ptr, i32, i32, i32, i8, i8, %struct.IRType1, i8, %struct.FoldState, ptr, i32, i32, i32, i32, i32, i32, i32, [1 x i32], [5 x %union.TValue], [3 x %union.TValue], ptr, i32, i32, i32, i32, ptr, ptr, i32, i32, i8, ptr, i32, i32, i16, [101 x i16], [258 x i32], [15 x i32], [16 x ptr], [64 x %struct.HotPenalty], i32, [16 x %struct.BPropEntry], i32, %struct.ScEvEntry, ptr, i32, i32, i32, ptr, i32, i32, ptr, ptr, ptr, i64, i64, %union.TValue, ptr, i32, i32 }
%struct.GCtrace = type { %struct.GCRef, i8, i8, i16, i32, i32, %struct.GCRef, ptr, i32, i32, ptr, ptr, %struct.GCRef, %struct.MRef, i32, i32, ptr, i32, i16, i16, i16, i16, i16, i16, i16, i8, i8, i8, i8 }
%struct.GCRef = type { i64 }
%struct.MRef = type { i64 }
%struct.IRType1 = type { i8 }
%struct.FoldState = type { %union.IRIns, [2 x %union.IRIns], [2 x %union.IRIns] }
%union.IRIns = type { %struct.GCRef }
%struct.HotPenalty = type { %struct.MRef, i16, i16 }
%struct.BPropEntry = type { i16, i16, i32 }
%struct.ScEvEntry = type { %struct.MRef, i16, i16, i16, i16, %struct.IRType1, i8 }
%union.TValue = type { i64 }
%struct.anon = type { i16, i16, i16, i16 }
%struct.anon.1 = type { i32, i32 }

; Function Attrs: alwaysinline nounwind uwtable
define internal void @lj_ir_set_(ptr noundef %0, i16 noundef zeroext %1, i16 noundef zeroext %2, i16 noundef zeroext %3) #2 {
  %5 = alloca ptr, align 8
  %6 = alloca i16, align 2
  %7 = alloca i16, align 2
  %8 = alloca i16, align 2
  store ptr %0, ptr %5, align 8, !tbaa !4
  store i16 %1, ptr %6, align 2, !tbaa !44
  store i16 %2, ptr %7, align 2, !tbaa !44
  store i16 %3, ptr %8, align 2, !tbaa !44
  %9 = load i16, ptr %6, align 2, !tbaa !44
  %10 = load ptr, ptr %5, align 8, !tbaa !4
  %11 = getelementptr inbounds nuw %struct.jit_State, ptr %10, i32 0, i32 14
  %12 = getelementptr inbounds nuw %struct.FoldState, ptr %11, i32 0, i32 0
  %13 = getelementptr inbounds nuw %struct.anon, ptr %12, i32 0, i32 2
  store i16 %9, ptr %13, align 4, !tbaa !33
  %14 = load i16, ptr %7, align 2, !tbaa !44
  %15 = load ptr, ptr %5, align 8, !tbaa !4
  %16 = getelementptr inbounds nuw %struct.jit_State, ptr %15, i32 0, i32 14
  %17 = getelementptr inbounds nuw %struct.FoldState, ptr %16, i32 0, i32 0
  %18 = getelementptr inbounds nuw %struct.anon, ptr %17, i32 0, i32 0
  store i16 %14, ptr %18, align 8, !tbaa !33
  %19 = load i16, ptr %8, align 2, !tbaa !44
  %20 = load ptr, ptr %5, align 8, !tbaa !4
  %21 = getelementptr inbounds nuw %struct.jit_State, ptr %20, i32 0, i32 14
  %22 = getelementptr inbounds nuw %struct.FoldState, ptr %21, i32 0, i32 0
  %23 = getelementptr inbounds nuw %struct.anon, ptr %22, i32 0, i32 1
  store i16 %19, ptr %23, align 2, !tbaa !33
  ret void
}

; Function Attrs: nounwind uwtable
define internal i32 @conv_str_tonum(ptr noundef %0, i32 noundef %1, ptr noundef %2) #0 {
  %4 = alloca ptr, align 8
  %5 = alloca i32, align 4
  %6 = alloca ptr, align 8
  store ptr %0, ptr %4, align 8, !tbaa !4
  store i32 %1, ptr %5, align 4, !tbaa !38
  store ptr %2, ptr %6, align 8, !tbaa !53
  %7 = load i32, ptr %5, align 4, !tbaa !38
  %8 = and i32 %7, 520093696
  %9 = icmp eq i32 %8, 67108864
  br i1 %9, label %10, label %27

10:                                               ; preds = %3
  %11 = load ptr, ptr %4, align 8, !tbaa !4
  %12 = load i32, ptr %5, align 4, !tbaa !38
  %13 = trunc i32 %12 to i16
  call void @lj_ir_set_(ptr noundef %11, i16 noundef zeroext 24206, i16 noundef zeroext %13, i16 noundef zeroext 0)
  %14 = load ptr, ptr %4, align 8, !tbaa !4
  %15 = call i32 @lj_opt_fold(ptr noundef %14)
  store i32 %15, ptr %5, align 4, !tbaa !38
  %16 = load ptr, ptr %6, align 8, !tbaa !53
  %17 = getelementptr inbounds nuw %struct.GCRef, ptr %16, i32 0, i32 0
  %18 = load i64, ptr %17, align 8, !tbaa !33
  %19 = and i64 %18, 140737488355327
  %20 = inttoptr i64 %19 to ptr
  %21 = load ptr, ptr %6, align 8, !tbaa !53
  %22 = call i32 @lj_strscan_num(ptr noundef %20, ptr noundef %21)
  %23 = icmp ne i32 %22, 0
  br i1 %23, label %26, label %24

24:                                               ; preds = %10
  %25 = load ptr, ptr %4, align 8, !tbaa !4
  call void @lj_trace_err(ptr noundef %25, i32 noundef 11) #6
  unreachable

26:                                               ; preds = %10
  br label %27

27:                                               ; preds = %26, %3
  %28 = load i32, ptr %5, align 4, !tbaa !38
  ret i32 %28
}

; Function Attrs: nounwind uwtable
define hidden i32 @lj_opt_narrow_mod(ptr noundef %0, i32 noundef %1, i32 noundef %2, ptr noundef %3, ptr noundef %4) #0 {
  %6 = alloca i32, align 4
  %7 = alloca ptr, align 8
  %8 = alloca i32, align 4
  %9 = alloca i32, align 4
  %10 = alloca ptr, align 8
  %11 = alloca ptr, align 8
  %12 = alloca i32, align 4
  %13 = alloca i32, align 4
  store ptr %0, ptr %7, align 8, !tbaa !4
  store i32 %1, ptr %8, align 4, !tbaa !38
  store i32 %2, ptr %9, align 4, !tbaa !38
  store ptr %3, ptr %10, align 8, !tbaa !53
  store ptr %4, ptr %11, align 8, !tbaa !53
  call void @llvm.lifetime.start.p0(i64 4, ptr %12) #5
  %14 = load ptr, ptr %7, align 8, !tbaa !4
  %15 = load i32, ptr %8, align 4, !tbaa !38
  %16 = load ptr, ptr %10, align 8, !tbaa !53
  %17 = call i32 @conv_str_tonum(ptr noundef %14, i32 noundef %15, ptr noundef %16)
  store i32 %17, ptr %8, align 4, !tbaa !38
  %18 = load ptr, ptr %7, align 8, !tbaa !4
  %19 = load i32, ptr %9, align 4, !tbaa !38
  %20 = load ptr, ptr %11, align 8, !tbaa !53
  %21 = call i32 @conv_str_tonum(ptr noundef %18, i32 noundef %19, ptr noundef %20)
  store i32 %21, ptr %9, align 4, !tbaa !38
  %22 = load ptr, ptr %7, align 8, !tbaa !4
  %23 = getelementptr inbounds nuw %struct.jit_State, ptr %22, i32 0, i32 7
  %24 = load i32, ptr %23, align 8, !tbaa !9
  %25 = and i32 %24, 2097152
  %26 = icmp ne i32 %25, 0
  br i1 %26, label %27, label %72

27:                                               ; preds = %5
  %28 = load i32, ptr %8, align 4, !tbaa !38
  %29 = lshr i32 %28, 24
  %30 = and i32 %29, 31
  %31 = sub i32 %30, 15
  %32 = icmp ule i32 %31, 4
  br i1 %32, label %33, label %72

33:                                               ; preds = %27
  %34 = load i32, ptr %9, align 4, !tbaa !38
  %35 = lshr i32 %34, 24
  %36 = and i32 %35, 31
  %37 = sub i32 %36, 15
  %38 = icmp ule i32 %37, 4
  br i1 %38, label %39, label %72

39:                                               ; preds = %33
  br i1 false, label %40, label %51

40:                                               ; preds = %39
  %41 = load ptr, ptr %11, align 8, !tbaa !53
  %42 = load i64, ptr %41, align 8, !tbaa !33
  %43 = ashr i64 %42, 47
  %44 = trunc i64 %43 to i32
  %45 = icmp eq i32 %44, -14
  br i1 %45, label %46, label %51

46:                                               ; preds = %40
  %47 = load ptr, ptr %11, align 8, !tbaa !53
  %48 = getelementptr inbounds nuw %struct.anon.1, ptr %47, i32 0, i32 0
  %49 = load i32, ptr %48, align 8, !tbaa !33
  %50 = icmp ne i32 %49, 0
  br i1 %50, label %56, label %72

51:                                               ; preds = %40, %39
  %52 = load ptr, ptr %11, align 8, !tbaa !53
  %53 = load i64, ptr %52, align 8, !tbaa !33
  %54 = shl i64 %53, 1
  %55 = icmp eq i64 %54, 0
  br i1 %55, label %72, label %56

56:                                               ; preds = %51, %46
  %57 = load ptr, ptr %7, align 8, !tbaa !4
  %58 = load i32, ptr %9, align 4, !tbaa !38
  %59 = trunc i32 %58 to i16
  %60 = load ptr, ptr %7, align 8, !tbaa !4
  %61 = call i32 @lj_ir_kint(ptr noundef %60, i32 noundef 0)
  %62 = trunc i32 %61 to i16
  call void @lj_ir_set_(ptr noundef %57, i16 noundef zeroext 2451, i16 noundef zeroext %59, i16 noundef zeroext %62)
  %63 = load ptr, ptr %7, align 8, !tbaa !4
  %64 = call i32 @lj_opt_fold(ptr noundef %63)
  %65 = load ptr, ptr %7, align 8, !tbaa !4
  %66 = load i32, ptr %8, align 4, !tbaa !38
  %67 = trunc i32 %66 to i16
  %68 = load i32, ptr %9, align 4, !tbaa !38
  %69 = trunc i32 %68 to i16
  call void @lj_ir_set_(ptr noundef %65, i16 noundef zeroext 11539, i16 noundef zeroext %67, i16 noundef zeroext %69)
  %70 = load ptr, ptr %7, align 8, !tbaa !4
  %71 = call i32 @lj_opt_fold(ptr noundef %70)
  store i32 %71, ptr %6, align 4
  store i32 1, ptr %13, align 4
  br label %105

72:                                               ; preds = %51, %46, %33, %27, %5
  %73 = load ptr, ptr %7, align 8, !tbaa !4
  %74 = load i32, ptr %8, align 4, !tbaa !38
  %75 = call i32 @lj_ir_tonum(ptr noundef %73, i32 noundef %74)
  store i32 %75, ptr %8, align 4, !tbaa !38
  %76 = load ptr, ptr %7, align 8, !tbaa !4
  %77 = load i32, ptr %9, align 4, !tbaa !38
  %78 = call i32 @lj_ir_tonum(ptr noundef %76, i32 noundef %77)
  store i32 %78, ptr %9, align 4, !tbaa !38
  %79 = load ptr, ptr %7, align 8, !tbaa !4
  %80 = load i32, ptr %8, align 4, !tbaa !38
  %81 = trunc i32 %80 to i16
  %82 = load i32, ptr %9, align 4, !tbaa !38
  %83 = trunc i32 %82 to i16
  call void @lj_ir_set_(ptr noundef %79, i16 noundef zeroext 11278, i16 noundef zeroext %81, i16 noundef zeroext %83)
  %84 = load ptr, ptr %7, align 8, !tbaa !4
  %85 = call i32 @lj_opt_fold(ptr noundef %84)
  store i32 %85, ptr %12, align 4, !tbaa !38
  %86 = load ptr, ptr %7, align 8, !tbaa !4
  %87 = load i32, ptr %12, align 4, !tbaa !38
  %88 = trunc i32 %87 to i16
  call void @lj_ir_set_(ptr noundef %86, i16 noundef zeroext 13326, i16 noundef zeroext %88, i16 noundef zeroext 0)
  %89 = load ptr, ptr %7, align 8, !tbaa !4
  %90 = call i32 @lj_opt_fold(ptr noundef %89)
  store i32 %90, ptr %12, align 4, !tbaa !38
  %91 = load ptr, ptr %7, align 8, !tbaa !4
  %92 = load i32, ptr %12, align 4, !tbaa !38
  %93 = trunc i32 %92 to i16
  %94 = load i32, ptr %9, align 4, !tbaa !38
  %95 = trunc i32 %94 to i16
  call void @lj_ir_set_(ptr noundef %91, i16 noundef zeroext 11022, i16 noundef zeroext %93, i16 noundef zeroext %95)
  %96 = load ptr, ptr %7, align 8, !tbaa !4
  %97 = call i32 @lj_opt_fold(ptr noundef %96)
  store i32 %97, ptr %12, align 4, !tbaa !38
  %98 = load ptr, ptr %7, align 8, !tbaa !4
  %99 = load i32, ptr %8, align 4, !tbaa !38
  %100 = trunc i32 %99 to i16
  %101 = load i32, ptr %12, align 4, !tbaa !38
  %102 = trunc i32 %101 to i16
  call void @lj_ir_set_(ptr noundef %98, i16 noundef zeroext 10766, i16 noundef zeroext %100, i16 noundef zeroext %102)
  %103 = load ptr, ptr %7, align 8, !tbaa !4
  %104 = call i32 @lj_opt_fold(ptr noundef %103)
  store i32 %104, ptr %6, align 4
  store i32 1, ptr %13, align 4
  br label %105

105:                                              ; preds = %72, %56
  call void @llvm.lifetime.end.p0(i64 4, ptr %12) #5
  %106 = load i32, ptr %6, align 4
  ret i32 %106
}