; Function Attrs: nounwind uwtable
define hidden i32 @lj_opt_narrow_mod(ptr noundef %0, i32 noundef %1, i32 noundef %2, ptr noundef %3, ptr noundef %4) local_unnamed_addr #0 {
  %6 = and i32 %1, 520093696
  %7 = icmp eq i32 %6, 67108864
  br i1 %7, label %8, label %conv_str_tonum.exit

8:                                                ; preds = %5
  %9 = trunc i32 %1 to i16
  %10 = getelementptr inbounds nuw i8, ptr %0, i64 184
  %11 = getelementptr inbounds nuw i8, ptr %0, i64 188
  store i16 24206, ptr %11, align 4, !tbaa !32
  store i16 %9, ptr %10, align 8, !tbaa !32
  %12 = getelementptr inbounds nuw i8, ptr %0, i64 186
  store i16 0, ptr %12, align 2, !tbaa !32
  %13 = tail call i32 @lj_opt_fold(ptr noundef %0) #6
  %14 = load i64, ptr %3, align 8, !tbaa !32
  %15 = and i64 %14, 140737488355327
  %16 = inttoptr i64 %15 to ptr
  %17 = tail call i32 @lj_strscan_num(ptr noundef %16, ptr noundef nonnull %3) #6
  %.not.i = icmp eq i32 %17, 0
  br i1 %.not.i, label %18, label %conv_str_tonum.exit

18:                                               ; preds = %8
  tail call void @lj_trace_err(ptr noundef nonnull %0, i32 noundef 11) #7
  unreachable

conv_str_tonum.exit:                              ; preds = %5, %8
  %.0.i = phi i32 [ %13, %8 ], [ %1, %5 ]
  %19 = and i32 %2, 520093696
  %20 = icmp eq i32 %19, 67108864
  br i1 %20, label %21, label %conv_str_tonum.exit39

21:                                               ; preds = %conv_str_tonum.exit
  %22 = trunc i32 %2 to i16
  %23 = getelementptr inbounds nuw i8, ptr %0, i64 184
  %24 = getelementptr inbounds nuw i8, ptr %0, i64 188
  store i16 24206, ptr %24, align 4, !tbaa !32
  store i16 %22, ptr %23, align 8, !tbaa !32
  %25 = getelementptr inbounds nuw i8, ptr %0, i64 186
  store i16 0, ptr %25, align 2, !tbaa !32
  %26 = tail call i32 @lj_opt_fold(ptr noundef %0) #6
  %27 = load i64, ptr %4, align 8, !tbaa !32
  %28 = and i64 %27, 140737488355327
  %29 = inttoptr i64 %28 to ptr
  %30 = tail call i32 @lj_strscan_num(ptr noundef %29, ptr noundef nonnull %4) #6
  %.not.i38 = icmp eq i32 %30, 0
  br i1 %.not.i38, label %31, label %conv_str_tonum.exit39

31:                                               ; preds = %21
  tail call void @lj_trace_err(ptr noundef nonnull %0, i32 noundef 11) #7
  unreachable

conv_str_tonum.exit39:                            ; preds = %conv_str_tonum.exit, %21
  %.0.i37 = phi i32 [ %26, %21 ], [ %2, %conv_str_tonum.exit ]
  %32 = getelementptr inbounds nuw i8, ptr %0, i64 168
  %33 = load i32, ptr %32, align 8, !tbaa !4
  %34 = and i32 %33, 2097152
  %.not = icmp eq i32 %34, 0
  br i1 %.not, label %57, label %35

35:                                               ; preds = %conv_str_tonum.exit39
  %36 = lshr i32 %.0.i, 24
  %37 = and i32 %36, 31
  %38 = add nsw i32 %37, -15
  %39 = icmp ult i32 %38, 5
  br i1 %39, label %40, label %57

40:                                               ; preds = %35
  %41 = lshr i32 %.0.i37, 24
  %42 = and i32 %41, 31
  %43 = add nsw i32 %42, -15
  %44 = icmp ult i32 %43, 5
  br i1 %44, label %45, label %57

45:                                               ; preds = %40
  %46 = load i64, ptr %4, align 8, !tbaa !32
  %.mask = and i64 %46, 9223372036854775807
  %47 = icmp eq i64 %.mask, 0
  br i1 %47, label %57, label %48

48:                                               ; preds = %45
  %49 = trunc i32 %.0.i37 to i16
  %50 = tail call i32 @lj_ir_kint(ptr noundef nonnull %0, i32 noundef 0) #6
  %51 = trunc i32 %50 to i16
  %52 = getelementptr inbounds nuw i8, ptr %0, i64 184
  %53 = getelementptr inbounds nuw i8, ptr %0, i64 188
  store i16 2451, ptr %53, align 4, !tbaa !32
  store i16 %49, ptr %52, align 8, !tbaa !32
  %54 = getelementptr inbounds nuw i8, ptr %0, i64 186
  store i16 %51, ptr %54, align 2, !tbaa !32
  %55 = tail call i32 @lj_opt_fold(ptr noundef nonnull %0) #6
  %56 = trunc i32 %.0.i to i16
  store i16 11539, ptr %53, align 4, !tbaa !32
  store i16 %56, ptr %52, align 8, !tbaa !32
  store i16 %49, ptr %54, align 2, !tbaa !32
  br label %71

57:                                               ; preds = %45, %40, %35, %conv_str_tonum.exit39
  %58 = tail call i32 @lj_ir_tonum(ptr noundef nonnull %0, i32 noundef %.0.i) #6
  %59 = tail call i32 @lj_ir_tonum(ptr noundef nonnull %0, i32 noundef %.0.i37) #6
  %60 = trunc i32 %58 to i16
  %61 = trunc i32 %59 to i16
  %62 = getelementptr inbounds nuw i8, ptr %0, i64 184
  %63 = getelementptr inbounds nuw i8, ptr %0, i64 188
  store i16 11278, ptr %63, align 4, !tbaa !32
  store i16 %60, ptr %62, align 8, !tbaa !32
  %64 = getelementptr inbounds nuw i8, ptr %0, i64 186
  store i16 %61, ptr %64, align 2, !tbaa !32
  %65 = tail call i32 @lj_opt_fold(ptr noundef nonnull %0) #6
  %66 = trunc i32 %65 to i16
  store i16 13326, ptr %63, align 4, !tbaa !32
  store i16 %66, ptr %62, align 8, !tbaa !32
  store i16 0, ptr %64, align 2, !tbaa !32
  %67 = tail call i32 @lj_opt_fold(ptr noundef nonnull %0) #6
  %68 = trunc i32 %67 to i16
  store i16 11022, ptr %63, align 4, !tbaa !32
  store i16 %68, ptr %62, align 8, !tbaa !32
  store i16 %61, ptr %64, align 2, !tbaa !32
  %69 = tail call i32 @lj_opt_fold(ptr noundef nonnull %0) #6
  %70 = trunc i32 %69 to i16
  store i16 10766, ptr %63, align 4, !tbaa !32
  store i16 %60, ptr %62, align 8, !tbaa !32
  store i16 %70, ptr %64, align 2, !tbaa !32
  br label %71

71:                                               ; preds = %57, %48
  %72 = tail call i32 @lj_opt_fold(ptr noundef nonnull %0) #6
  ret i32 %72
}